target datalayout = "e-m:e-p270:32:32-p271:32:32-p272:64:64-i64:64-i128:128-f80:128-n8:16:32:64-S128"
target triple = "x86_64-pc-linux-gnu"

%struct.H5G_t = type { ptr, %struct.H5O_loc_t, %struct.H5G_name_t }
%struct.H5O_loc_t = type { ptr, i64, i8 }
%struct.H5G_name_t = type { ptr, ptr, i32 }
%struct.H5G_iter_appcall_ud_t = type { i64, ptr, %struct.H5G_link_iterate_t, ptr }
%struct.H5G_link_iterate_t = type { i32, %union.anon }
%union.anon = type { ptr }

@.str.3 = private unnamed_addr constant [100 x i8] c"generated/home/dtcxzyw/WorkSpace/Projects/compilers/llvm-opt-benchmark/bench/hdf5/hdf5/src/H5Gint.c\00", align 1
@H5E_SYM_g = external global i64, align 8
@H5E_CLOSEERROR_g = external global i64, align 8
@H5E_CANTOPENOBJ_g = external global i64, align 8
@.str.16 = private unnamed_addr constant [21 x i8] c"unable to open group\00", align 1
@H5E_CANTRELEASE_g = external global i64, align 8
@__func__.H5G_iterate = private unnamed_addr constant [12 x i8] c"H5G_iterate\00", align 1
@H5E_ID_g = external global i64, align 8
@H5E_CANTREGISTER_g = external global i64, align 8
@.str.34 = private unnamed_addr constant [25 x i8] c"unable to register group\00", align 1
@H5E_BADITER_g = external global i64, align 8
@.str.35 = private unnamed_addr constant [27 x i8] c"error iterating over links\00", align 1
@.str.36 = private unnamed_addr constant [22 x i8] c"unable to close group\00", align 1
@.str.37 = private unnamed_addr constant [24 x i8] c"unable to release group\00", align 1

; Function Attrs: nounwind uwtable
define i32 @H5G_iterate(ptr noundef %0, ptr noundef %1, i32 noundef %2, i32 noundef %3, i64 noundef %4, ptr noundef %5, ptr noundef %6, ptr noundef %7) #0 {
  %9 = alloca ptr, align 8
  %10 = alloca ptr, align 8
  %11 = alloca i32, align 4
  %12 = alloca i32, align 4
  %13 = alloca i64, align 8
  %14 = alloca ptr, align 8
  %15 = alloca ptr, align 8
  %16 = alloca ptr, align 8
  %17 = alloca i64, align 8
  %18 = alloca ptr, align 8
  %19 = alloca %struct.H5G_iter_appcall_ud_t, align 8
  %20 = alloca i32, align 4
  %21 = alloca i8, align 1
  store ptr %0, ptr %9, align 8
  store ptr %1, ptr %10, align 8
  store i32 %2, ptr %11, align 4
  store i32 %3, ptr %12, align 4
  store i64 %4, ptr %13, align 8
  store ptr %5, ptr %14, align 8
  store ptr %6, ptr %15, align 8
  store ptr %7, ptr %16, align 8
  store i64 -1, ptr %17, align 8
  store ptr null, ptr %18, align 8
  store i32 -1, ptr %20, align 4
  store i8 0, ptr %21, align 1
  %22 = load ptr, ptr %9, align 8
  %23 = load ptr, ptr %10, align 8
  %24 = call ptr @H5G__open_name(ptr noundef %22, ptr noundef %23)
  store ptr %24, ptr %18, align 8
  %25 = icmp eq ptr null, %24
  br i1 %25, label %26, label %41

26:                                               ; preds = %8
  br label %27

27:                                               ; preds = %26
  br label %28

28:                                               ; preds = %27
  br label %29

29:                                               ; preds = %28
  %30 = load i64, ptr @H5E_SYM_g, align 8
  %31 = load i64, ptr @H5E_CANTOPENOBJ_g, align 8
  %32 = call i32 (ptr, ptr, i32, i64, i64, ptr, ...) @H5E_printf_stack(ptr noundef @.str.3, ptr noundef @__func__.H5G_iterate, i32 noundef 864, i64 noundef %30, i64 noundef %31, ptr noundef @.str.16)
  br label %33

33:                                               ; preds = %29
  store i8 1, ptr %21, align 1
  %34 = load i8, ptr %21, align 1
  %35 = trunc i8 %34 to i1
  %36 = zext i1 %35 to i8
  store i8 %36, ptr %21, align 1
  br label %37

37:                                               ; preds = %33
  br label %38

38:                                               ; preds = %37
  store i32 -1, ptr %20, align 4
  br label %94

39:                                               ; No predecessors!
  br label %40

40:                                               ; preds = %39
  br label %41

41:                                               ; preds = %40, %8
  %42 = load ptr, ptr %18, align 8
  %43 = call i64 @H5VL_wrap_register(i32 noundef 2, ptr noundef %42, i1 noundef zeroext true)
  store i64 %43, ptr %17, align 8
  %44 = icmp slt i64 %43, 0
  br i1 %44, label %45, label %60

45:                                               ; preds = %41
  br label %46

46:                                               ; preds = %45
  br label %47

47:                                               ; preds = %46
  br label %48

48:                                               ; preds = %47
  %49 = load i64, ptr @H5E_ID_g, align 8
  %50 = load i64, ptr @H5E_CANTREGISTER_g, align 8
  %51 = call i32 (ptr, ptr, i32, i64, i64, ptr, ...) @H5E_printf_stack(ptr noundef @.str.3, ptr noundef @__func__.H5G_iterate, i32 noundef 866, i64 noundef %49, i64 noundef %50, ptr noundef @.str.34)
  br label %52

52:                                               ; preds = %48
  store i8 1, ptr %21, align 1
  %53 = load i8, ptr %21, align 1
  %54 = trunc i8 %53 to i1
  %55 = zext i1 %54 to i8
  store i8 %55, ptr %21, align 1
  br label %56

56:                                               ; preds = %52
  br label %57

57:                                               ; preds = %56
  store i32 -1, ptr %20, align 4
  br label %94

58:                                               ; No predecessors!
  br label %59

59:                                               ; preds = %58
  br label %60

60:                                               ; preds = %59, %41
  %61 = load i64, ptr %17, align 8
  %62 = getelementptr inbounds %struct.H5G_iter_appcall_ud_t, ptr %19, i32 0, i32 0
  store i64 %61, ptr %62, align 8
  %63 = load ptr, ptr %18, align 8
  %64 = getelementptr inbounds %struct.H5G_t, ptr %63, i32 0, i32 1
  %65 = getelementptr inbounds %struct.H5G_iter_appcall_ud_t, ptr %19, i32 0, i32 1
  store ptr %64, ptr %65, align 8
  %66 = getelementptr inbounds %struct.H5G_iter_appcall_ud_t, ptr %19, i32 0, i32 2
  %67 = load ptr, ptr %15, align 8
  call void @llvm.memcpy.p0.p0.i64(ptr align 8 %66, ptr align 8 %67, i64 16, i1 false)
  %68 = load ptr, ptr %16, align 8
  %69 = getelementptr inbounds %struct.H5G_iter_appcall_ud_t, ptr %19, i32 0, i32 3
  store ptr %68, ptr %69, align 8
  %70 = load ptr, ptr %18, align 8
  %71 = getelementptr inbounds %struct.H5G_t, ptr %70, i32 0, i32 1
  %72 = load i32, ptr %11, align 4
  %73 = load i32, ptr %12, align 4
  %74 = load i64, ptr %13, align 8
  %75 = load ptr, ptr %14, align 8
  %76 = call i32 @H5G__obj_iterate(ptr noundef %71, i32 noundef %72, i32 noundef %73, i64 noundef %74, ptr noundef %75, ptr noundef @H5G__iterate_cb, ptr noundef %19)
  store i32 %76, ptr %20, align 4
  %77 = icmp slt i32 %76, 0
  br i1 %77, label %78, label %93

78:                                               ; preds = %60
  br label %79

79:                                               ; preds = %78
  br label %80

80:                                               ; preds = %79
  br label %81

81:                                               ; preds = %80
  %82 = load i64, ptr @H5E_SYM_g, align 8
  %83 = load i64, ptr @H5E_BADITER_g, align 8
  %84 = call i32 (ptr, ptr, i32, i64, i64, ptr, ...) @H5E_printf_stack(ptr noundef @.str.3, ptr noundef @__func__.H5G_iterate, i32 noundef 877, i64 noundef %82, i64 noundef %83, ptr noundef @.str.35)
  br label %85

85:                                               ; preds = %81
  store i8 1, ptr %21, align 1
  %86 = load i8, ptr %21, align 1
  %87 = trunc i8 %86 to i1
  %88 = zext i1 %87 to i8
  store i8 %88, ptr %21, align 1
  br label %89

89:                                               ; preds = %85
  br label %90

90:                                               ; preds = %89
  store i32 -1, ptr %20, align 4
  br label %94

91:                                               ; No predecessors!
  br label %92

92:                                               ; preds = %91
  br label %93

93:                                               ; preds = %92, %60
  br label %94

94:                                               ; preds = %93, %90, %57, %38
  %95 = load i64, ptr %17, align 8
  %96 = icmp ne i64 %95, -1
  br i1 %96, label %97, label %115

97:                                               ; preds = %94
  %98 = load i64, ptr %17, align 8
  %99 = call i32 @H5I_dec_app_ref(i64 noundef %98)
  %100 = icmp slt i32 %99, 0
  br i1 %100, label %101, label %114

101:                                              ; preds = %97
  br label %102

102:                                              ; preds = %101
  br label %103

103:                                              ; preds = %102
  br label %104

104:                                              ; preds = %103
  %105 = load i64, ptr @H5E_SYM_g, align 8
  %106 = load i64, ptr @H5E_CANTRELEASE_g, align 8
  %107 = call i32 (ptr, ptr, i32, i64, i64, ptr, ...) @H5E_printf_stack(ptr noundef @.str.3, ptr noundef @__func__.H5G_iterate, i32 noundef 883, i64 noundef %105, i64 noundef %106, ptr noundef @.str.36)
  br label %108

108:                                              ; preds = %104
  store i8 1, ptr %21, align 1
  %109 = load i8, ptr %21, align 1
  %110 = trunc i8 %109 to i1
  %111 = zext i1 %110 to i8
  store i8 %111, ptr %21, align 1
  br label %112

112:                                              ; preds = %108
  store i32 -1, ptr %20, align 4
  br label %113

113:                                              ; preds = %112
  br label %114

114:                                              ; preds = %113, %97
  br label %136

115:                                              ; preds = %94
  %116 = load ptr, ptr %18, align 8
  %117 = icmp ne ptr %116, null
  br i1 %117, label %118, label %135

118:                                              ; preds = %115
  %119 = load ptr, ptr %18, align 8
  %120 = call i32 @H5G_close(ptr noundef %119)
  %121 = icmp slt i32 %120, 0
  br i1 %121, label %122, label %135

122:                                              ; preds = %118
  br label %123

123:                                              ; preds = %122
  br label %124

124:                                              ; preds = %123
  br label %125

125:                                              ; preds = %124
  %126 = load i64, ptr @H5E_SYM_g, align 8
  %127 = load i64, ptr @H5E_CLOSEERROR_g, align 8
  %128 = call i32 (ptr, ptr, i32, i64, i64, ptr, ...) @H5E_printf_stack(ptr noundef @.str.3, ptr noundef @__func__.H5G_iterate, i32 noundef 886, i64 noundef %126, i64 noundef %127, ptr noundef @.str.37)
  br label %129

129:                                              ; preds = %125
  store i8 1, ptr %21, align 1
  %130 = load i8, ptr %21, align 1
  %131 = trunc i8 %130 to i1
  %132 = zext i1 %131 to i8
  store i8 %132, ptr %21, align 1
  br label %133

133:                                              ; preds = %129
  store i32 -1, ptr %20, align 4
  br label %134

134:                                              ; preds = %133
  br label %135

135:                                              ; preds = %134, %118, %115
  br label %136

136:                                              ; preds = %135, %114
  %137 = load i32, ptr %20, align 4
  ret i32 %137
}