; Function Attrs: nounwind uwtable
define range(i32 -1, -2147483648) i32 @H5G_iterate(ptr noundef %0, ptr noundef %1, i32 noundef %2, i32 noundef %3, i64 noundef %4, ptr noundef %5, ptr nocapture noundef readonly %6, ptr noundef %7) local_unnamed_addr #0 {
  %9 = alloca %struct.H5G_iter_appcall_ud_t, align 8
  %10 = tail call ptr @H5G__open_name(ptr noundef %0, ptr noundef %1)
  %11 = icmp eq ptr %10, null
  br i1 %11, label %.thread38, label %15

.thread38:                                        ; preds = %8
  %12 = load i64, ptr @H5E_SYM_g, align 8
  %13 = load i64, ptr @H5E_CANTOPENOBJ_g, align 8
  %14 = tail call i32 (ptr, ptr, i32, i64, i64, ptr, ...) @H5E_printf_stack(ptr noundef nonnull @.str.3, ptr noundef nonnull @__func__.H5G_iterate, i32 noundef 864, i64 noundef %12, i64 noundef %13, ptr noundef nonnull @.str.16) #10
  br label %46

15:                                               ; preds = %8
  %16 = tail call i64 @H5VL_wrap_register(i32 noundef 2, ptr noundef nonnull %10, i1 noundef zeroext true) #10
  %17 = icmp slt i64 %16, 0
  br i1 %17, label %29, label %18

18:                                               ; preds = %15
  store i64 %16, ptr %9, align 8
  %19 = getelementptr inbounds i8, ptr %10, i64 8
  %20 = getelementptr inbounds i8, ptr %9, i64 8
  store ptr %19, ptr %20, align 8
  %21 = getelementptr inbounds i8, ptr %9, i64 16
  call void @llvm.memcpy.p0.p0.i64(ptr noundef nonnull align 8 dereferenceable(16) %21, ptr noundef nonnull align 8 dereferenceable(16) %6, i64 16, i1 false)
  %22 = getelementptr inbounds i8, ptr %9, i64 32
  store ptr %7, ptr %22, align 8
  %23 = call i32 @H5G__obj_iterate(ptr noundef nonnull %19, i32 noundef %2, i32 noundef %3, i64 noundef %4, ptr noundef %5, ptr noundef nonnull @H5G__iterate_cb, ptr noundef nonnull %9) #10
  %24 = icmp slt i32 %23, 0
  br i1 %24, label %25, label %.thread

25:                                               ; preds = %18
  %26 = load i64, ptr @H5E_SYM_g, align 8
  %27 = load i64, ptr @H5E_BADITER_g, align 8
  %28 = call i32 (ptr, ptr, i32, i64, i64, ptr, ...) @H5E_printf_stack(ptr noundef nonnull @.str.3, ptr noundef nonnull @__func__.H5G_iterate, i32 noundef 877, i64 noundef %26, i64 noundef %27, ptr noundef nonnull @.str.35) #10
  br label %.thread

29:                                               ; preds = %15
  %30 = load i64, ptr @H5E_ID_g, align 8
  %31 = load i64, ptr @H5E_CANTREGISTER_g, align 8
  %32 = tail call i32 (ptr, ptr, i32, i64, i64, ptr, ...) @H5E_printf_stack(ptr noundef nonnull @.str.3, ptr noundef nonnull @__func__.H5G_iterate, i32 noundef 866, i64 noundef %30, i64 noundef %31, ptr noundef nonnull @.str.34) #10
  %.not = icmp eq i64 %16, -1
  br i1 %.not, label %39, label %.thread

.thread:                                          ; preds = %18, %25, %29
  %.032 = phi i32 [ -1, %29 ], [ %23, %18 ], [ -1, %25 ]
  %33 = call i32 @H5I_dec_app_ref(i64 noundef %16) #10
  %34 = icmp slt i32 %33, 0
  br i1 %34, label %35, label %46

35:                                               ; preds = %.thread
  %36 = load i64, ptr @H5E_SYM_g, align 8
  %37 = load i64, ptr @H5E_CANTRELEASE_g, align 8
  %38 = call i32 (ptr, ptr, i32, i64, i64, ptr, ...) @H5E_printf_stack(ptr noundef nonnull @.str.3, ptr noundef nonnull @__func__.H5G_iterate, i32 noundef 883, i64 noundef %36, i64 noundef %37, ptr noundef nonnull @.str.36) #10
  br label %46

39:                                               ; preds = %29
  %40 = tail call i32 @H5G_close(ptr noundef nonnull %10)
  %41 = icmp slt i32 %40, 0
  br i1 %41, label %42, label %46

42:                                               ; preds = %39
  %43 = load i64, ptr @H5E_SYM_g, align 8
  %44 = load i64, ptr @H5E_CLOSEERROR_g, align 8
  %45 = tail call i32 (ptr, ptr, i32, i64, i64, ptr, ...) @H5E_printf_stack(ptr noundef nonnull @.str.3, ptr noundef nonnull @__func__.H5G_iterate, i32 noundef 886, i64 noundef %43, i64 noundef %44, ptr noundef nonnull @.str.37) #10
  br label %46

46:                                               ; preds = %.thread38, %39, %42, %.thread, %35
  %.1 = phi i32 [ -1, %35 ], [ %.032, %.thread ], [ -1, %42 ], [ -1, %39 ], [ -1, %.thread38 ]
  ret i32 %.1
}